target datalayout = "e-m:e-p270:32:32-p271:32:32-p272:64:64-i64:64-i128:128-f80:128-n8:16:32:64-S128"
target triple = "x86_64-pc-linux-gnu"

%"class.clang::Decl.base" = type <{ ptr, %"class.llvm::PointerIntPair.337", %"class.llvm::PointerUnion", %"class.clang::SourceLocation", i32, i8 }>
%"class.llvm::PointerIntPair.337" = type { %"struct.llvm::detail::PunnedPointer.338" }
%"struct.llvm::detail::PunnedPointer.338" = type { [8 x i8] }
%"class.llvm::PointerUnion" = type { %"class.llvm::pointer_union_detail::PointerUnionMembers" }
%"class.llvm::pointer_union_detail::PointerUnionMembers" = type { %"class.llvm::pointer_union_detail::PointerUnionMembers.339" }
%"class.llvm::pointer_union_detail::PointerUnionMembers.339" = type { %"class.llvm::pointer_union_detail::PointerUnionMembers.340" }
%"class.llvm::pointer_union_detail::PointerUnionMembers.340" = type { %"class.llvm::PointerIntPair.341" }
%"class.llvm::PointerIntPair.341" = type { %"struct.llvm::detail::PunnedPointer.342" }
%"struct.llvm::detail::PunnedPointer.342" = type { [8 x i8] }
%"class.clang::SourceLocation" = type { i32 }
%"class.clang::QualType" = type { %"class.llvm::PointerIntPair" }
%"class.llvm::PointerIntPair" = type { %"struct.llvm::detail::PunnedPointer" }
%"struct.llvm::detail::PunnedPointer" = type { [8 x i8] }
%"class.clang::NamedDecl" = type { %"class.clang::Decl.base", %"class.clang::DeclarationName" }
%"class.clang::DeclarationName" = type { i64 }
%"class.clang::ValueDecl" = type { %"class.clang::NamedDecl", %"class.clang::QualType" }
%"class.llvm::FoldingSetBase::Node" = type { ptr }
%"class.clang::APValue" = type { i32, [4 x i8], %"struct.llvm::AlignedCharArrayUnion" }
%"struct.llvm::AlignedCharArrayUnion" = type { [64 x i8] }
%"struct.clang::MSGuidDeclParts" = type { i32, i16, i16, [8 x i8] }
%"class.clang::MSGuidDecl" = type { %"class.clang::ValueDecl", %"class.llvm::FoldingSetBase::Node", %"struct.clang::MSGuidDeclParts", %"class.clang::APValue" }

@_ZTVN5clang9NamedDeclE = external unnamed_addr constant { [15 x ptr] }, align 8
@_ZTVN5clang9ValueDeclE = external unnamed_addr constant { [15 x ptr] }, align 8

; Function Attrs: mustprogress nounwind uwtable
define linkonce_odr hidden void @_ZN5clang9NamedDeclC2ENS_4Decl4KindEPNS_11DeclContextENS_14SourceLocationENS_15DeclarationNameE(ptr noundef nonnull align 8 dereferenceable(48) %0, i32 noundef %1, ptr noundef %2, i32 %3, i64 %4) unnamed_addr #0 comdat align 2 {
  %6 = alloca %"class.clang::SourceLocation", align 4
  %7 = alloca %"class.clang::DeclarationName", align 8
  %8 = alloca ptr, align 8
  %9 = alloca i32, align 4
  %10 = alloca ptr, align 8
  %11 = alloca %"class.clang::SourceLocation", align 4
  %12 = getelementptr inbounds nuw %"class.clang::SourceLocation", ptr %6, i32 0, i32 0
  store i32 %3, ptr %12, align 4
  %13 = getelementptr inbounds nuw %"class.clang::DeclarationName", ptr %7, i32 0, i32 0
  store i64 %4, ptr %13, align 8
  store ptr %0, ptr %8, align 8
  store i32 %1, ptr %9, align 4
  store ptr %2, ptr %10, align 8
  %14 = load ptr, ptr %8, align 8
  %15 = load i32, ptr %9, align 4
  %16 = load ptr, ptr %10, align 8
  call void @llvm.memcpy.p0.p0.i64(ptr align 4 %11, ptr align 4 %6, i64 4, i1 false)
  %17 = getelementptr inbounds nuw %"class.clang::SourceLocation", ptr %11, i32 0, i32 0
  %18 = load i32, ptr %17, align 4
  call void @_ZN5clang4DeclC2ENS0_4KindEPNS_11DeclContextENS_14SourceLocationE(ptr noundef nonnull align 8 dereferenceable(33) %14, i32 noundef %15, ptr noundef %16, i32 %18)
  store ptr getelementptr inbounds inrange(-16, 104) ({ [15 x ptr] }, ptr @_ZTVN5clang9NamedDeclE, i32 0, i32 0, i32 2), ptr %14, align 8
  %19 = getelementptr inbounds nuw %"class.clang::NamedDecl", ptr %14, i32 0, i32 1
  call void @llvm.memcpy.p0.p0.i64(ptr align 8 %19, ptr align 8 %7, i64 8, i1 false)
  ret void
}

; Function Attrs: mustprogress nounwind uwtable
define linkonce_odr hidden void @_ZN5clang15DeclarationName13setPtrAndKindEPKvNS0_14StoredNameKindE(ptr noundef nonnull align 8 dereferenceable(8) %0, ptr noundef %1, i32 noundef %2) #0 comdat align 2 {
  %4 = alloca ptr, align 8
  %5 = alloca ptr, align 8
  %6 = alloca i32, align 4
  %7 = alloca i64, align 8
  store ptr %0, ptr %4, align 8
  store ptr %1, ptr %5, align 8
  store i32 %2, ptr %6, align 4
  %8 = load ptr, ptr %4, align 8
  %9 = load ptr, ptr %5, align 8
  %10 = ptrtoint ptr %9 to i64
  store i64 %10, ptr %7, align 8
  %11 = load i64, ptr %7, align 8
  %12 = load i32, ptr %6, align 4
  %13 = zext i32 %12 to i64
  %14 = or i64 %11, %13
  %15 = getelementptr inbounds nuw %"class.clang::DeclarationName", ptr %8, i32 0, i32 0
  store i64 %14, ptr %15, align 8
  ret void
}

; Function Attrs: mustprogress nounwind uwtable
define linkonce_odr hidden void @_ZN5clang7APValueC2Ev(ptr noundef nonnull align 8 dereferenceable(72) %0) unnamed_addr #0 comdat align 2 {
  %2 = alloca ptr, align 8
  store ptr %0, ptr %2, align 8
  %3 = load ptr, ptr %2, align 8
  %4 = getelementptr inbounds nuw %"class.clang::APValue", ptr %3, i32 0, i32 0
  store i32 0, ptr %4, align 8
  ret void
}

; Function Attrs: mustprogress nounwind uwtable
define linkonce_odr hidden void @_ZN4llvm14FoldingSetBase4NodeC2Ev(ptr noundef nonnull align 8 dereferenceable(8) %0) unnamed_addr #0 comdat align 2 {
  %2 = alloca ptr, align 8
  store ptr %0, ptr %2, align 8
  %3 = load ptr, ptr %2, align 8
  %4 = getelementptr inbounds nuw %"class.llvm::FoldingSetBase::Node", ptr %3, i32 0, i32 0
  store ptr null, ptr %4, align 8
  ret void
}

; Function Attrs: mustprogress nounwind uwtable
define linkonce_odr hidden void @_ZN5clang9ValueDeclC2ENS_4Decl4KindEPNS_11DeclContextENS_14SourceLocationENS_15DeclarationNameENS_8QualTypeE(ptr noundef nonnull align 8 dereferenceable(56) %0, i32 noundef %1, ptr noundef %2, i32 %3, i64 %4, i64 %5) unnamed_addr #0 comdat align 2 {
  %7 = alloca %"class.clang::SourceLocation", align 4
  %8 = alloca %"class.clang::DeclarationName", align 8
  %9 = alloca %"class.clang::QualType", align 8
  %10 = alloca ptr, align 8
  %11 = alloca i32, align 4
  %12 = alloca ptr, align 8
  %13 = alloca %"class.clang::SourceLocation", align 4
  %14 = alloca %"class.clang::DeclarationName", align 8
  %15 = getelementptr inbounds nuw %"class.clang::SourceLocation", ptr %7, i32 0, i32 0
  store i32 %3, ptr %15, align 4
  %16 = getelementptr inbounds nuw %"class.clang::DeclarationName", ptr %8, i32 0, i32 0
  store i64 %4, ptr %16, align 8
  %17 = getelementptr inbounds nuw %"class.clang::QualType", ptr %9, i32 0, i32 0
  %18 = getelementptr inbounds nuw %"class.llvm::PointerIntPair", ptr %17, i32 0, i32 0
  %19 = getelementptr inbounds nuw %"struct.llvm::detail::PunnedPointer", ptr %18, i32 0, i32 0
  store i64 %5, ptr %19, align 8
  store ptr %0, ptr %10, align 8
  store i32 %1, ptr %11, align 4
  store ptr %2, ptr %12, align 8
  %20 = load ptr, ptr %10, align 8
  %21 = load i32, ptr %11, align 4
  %22 = load ptr, ptr %12, align 8
  call void @llvm.memcpy.p0.p0.i64(ptr align 4 %13, ptr align 4 %7, i64 4, i1 false)
  call void @llvm.memcpy.p0.p0.i64(ptr align 8 %14, ptr align 8 %8, i64 8, i1 false)
  %23 = getelementptr inbounds nuw %"class.clang::SourceLocation", ptr %13, i32 0, i32 0
  %24 = load i32, ptr %23, align 4
  %25 = getelementptr inbounds nuw %"class.clang::DeclarationName", ptr %14, i32 0, i32 0
  %26 = load i64, ptr %25, align 8
  call void @_ZN5clang9NamedDeclC2ENS_4Decl4KindEPNS_11DeclContextENS_14SourceLocationENS_15DeclarationNameE(ptr noundef nonnull align 8 dereferenceable(48) %20, i32 noundef %21, ptr noundef %22, i32 %24, i64 %26)
  store ptr getelementptr inbounds inrange(-16, 104) ({ [15 x ptr] }, ptr @_ZTVN5clang9ValueDeclE, i32 0, i32 0, i32 2), ptr %20, align 8
  %27 = getelementptr inbounds nuw %"class.clang::ValueDecl", ptr %20, i32 0, i32 1
  call void @llvm.memcpy.p0.p0.i64(ptr align 8 %27, ptr align 8 %9, i64 8, i1 false)
  ret void
}

; Function Attrs: mustprogress nounwind uwtable
define linkonce_odr hidden void @_ZN5clang15DeclarationNameC2Ev(ptr noundef nonnull align 8 dereferenceable(8) %0) unnamed_addr #0 comdat align 2 {
  %2 = alloca ptr, align 8
  store ptr %0, ptr %2, align 8
  %3 = load ptr, ptr %2, align 8
  %4 = getelementptr inbounds nuw %"class.clang::DeclarationName", ptr %3, i32 0, i32 0
  store i64 0, ptr %4, align 8
  call void @_ZN5clang15DeclarationName13setPtrAndKindEPKvNS0_14StoredNameKindE(ptr noundef nonnull align 8 dereferenceable(8) %3, ptr noundef null, i32 noundef 0)
  ret void
}

; Function Attrs: mustprogress nounwind uwtable
define linkonce_odr hidden void @_ZN5clang14SourceLocationC2Ev(ptr noundef nonnull align 4 dereferenceable(4) %0) unnamed_addr #0 comdat align 2 {
  %2 = alloca ptr, align 8
  store ptr %0, ptr %2, align 8
  %3 = load ptr, ptr %2, align 8
  %4 = getelementptr inbounds nuw %"class.clang::SourceLocation", ptr %3, i32 0, i32 0
  store i32 0, ptr %4, align 4
  ret void
}

; Function Attrs: mustprogress nounwind uwtable
define dso_local void @_ZN5clang10MSGuidDeclC2EPNS_11DeclContextENS_8QualTypeENS_15MSGuidDeclPartsE(ptr noundef nonnull align 8 dereferenceable(152) %0, ptr noundef %1, i64 %2, i64 %3, i64 %4) unnamed_addr #0 align 2 {
  %6 = alloca %"class.clang::QualType", align 8
  %7 = alloca %"struct.clang::MSGuidDeclParts", align 4
  %8 = alloca ptr, align 8
  %9 = alloca ptr, align 8
  %10 = alloca %"class.clang::SourceLocation", align 4
  %11 = alloca %"class.clang::DeclarationName", align 8
  %12 = alloca %"class.clang::QualType", align 8
  %13 = getelementptr inbounds nuw %"class.clang::QualType", ptr %6, i32 0, i32 0
  %14 = getelementptr inbounds nuw %"class.llvm::PointerIntPair", ptr %13, i32 0, i32 0
  %15 = getelementptr inbounds nuw %"struct.llvm::detail::PunnedPointer", ptr %14, i32 0, i32 0
  store i64 %2, ptr %15, align 8
  %16 = getelementptr inbounds nuw { i64, i64 }, ptr %7, i32 0, i32 0
  store i64 %3, ptr %16, align 4
  %17 = getelementptr inbounds nuw { i64, i64 }, ptr %7, i32 0, i32 1
  store i64 %4, ptr %17, align 4
  store ptr %0, ptr %8, align 8
  store ptr %1, ptr %9, align 8
  %18 = load ptr, ptr %8, align 8
  %19 = load ptr, ptr %9, align 8
  call void @llvm.memset.p0.i64(ptr align 4 %10, i8 0, i64 4, i1 false)
  call void @_ZN5clang14SourceLocationC2Ev(ptr noundef nonnull align 4 dereferenceable(4) %10) #11
  call void @_ZN5clang15DeclarationNameC2Ev(ptr noundef nonnull align 8 dereferenceable(8) %11)
  call void @llvm.memcpy.p0.p0.i64(ptr align 8 %12, ptr align 8 %6, i64 8, i1 false)
  %20 = getelementptr inbounds nuw %"class.clang::SourceLocation", ptr %10, i32 0, i32 0
  %21 = load i32, ptr %20, align 4
  %22 = getelementptr inbounds nuw %"class.clang::DeclarationName", ptr %11, i32 0, i32 0
  %23 = load i64, ptr %22, align 8
  %24 = getelementptr inbounds nuw %"class.clang::QualType", ptr %12, i32 0, i32 0
  %25 = getelementptr inbounds nuw %"class.llvm::PointerIntPair", ptr %24, i32 0, i32 0
  %26 = getelementptr inbounds nuw %"struct.llvm::detail::PunnedPointer", ptr %25, i32 0, i32 0
  %27 = load i64, ptr %26, align 8
  call void @_ZN5clang9ValueDeclC2ENS_4Decl4KindEPNS_11DeclContextENS_14SourceLocationENS_15DeclarationNameENS_8QualTypeE(ptr noundef nonnull align 8 dereferenceable(56) %18, i32 noundef 28, ptr noundef %19, i32 %21, i64 %23, i64 %27)
  %28 = getelementptr inbounds i8, ptr %18, i64 56
  call void @_ZN4llvm14FoldingSetBase4NodeC2Ev(ptr noundef nonnull align 8 dereferenceable(8) %28) #11
  store ptr getelementptr inbounds inrange(-16, 104) ({ [15 x ptr] }, ptr @_ZTVN5clang10MSGuidDeclE, i32 0, i32 0, i32 2), ptr %18, align 8
  %29 = getelementptr inbounds nuw %"class.clang::MSGuidDecl", ptr %18, i32 0, i32 2
  call void @llvm.memcpy.p0.p0.i64(ptr align 8 %29, ptr align 4 %7, i64 16, i1 false)
  %30 = getelementptr inbounds nuw %"class.clang::MSGuidDecl", ptr %18, i32 0, i32 3
  call void @_ZN5clang7APValueC2Ev(ptr noundef nonnull align 8 dereferenceable(72) %30)
  ret void
}