; Function Attrs: mustprogress nounwind uwtable
define dso_local void @_ZN5clang10MSGuidDeclC2EPNS_11DeclContextENS_8QualTypeENS_15MSGuidDeclPartsE(ptr noundef nonnull align 8 dereferenceable(152) %0, ptr noundef %1, i64 %2, i64 %3, i64 %4) unnamed_addr #1 align 2 {
  tail call void @_ZN5clang4DeclC2ENS0_4KindEPNS_11DeclContextENS_14SourceLocationE(ptr noundef nonnull align 8 dereferenceable(56) %0, i32 noundef 28, ptr noundef %1, i32 0)
  %6 = getelementptr inbounds nuw i8, ptr %0, i64 40
  store i64 0, ptr %6, align 8
  %7 = getelementptr inbounds nuw i8, ptr %0, i64 48
  store i64 %2, ptr %7, align 8
  %8 = getelementptr inbounds nuw i8, ptr %0, i64 56
  store ptr null, ptr %8, align 8
  store ptr getelementptr inbounds nuw inrange(-16, 104) (i8, ptr @_ZTVN5clang10MSGuidDeclE, i64 16), ptr %0, align 8
  %9 = getelementptr inbounds nuw i8, ptr %0, i64 64
  store i64 %3, ptr %9, align 8
  %.sroa.2.0..sroa_idx = getelementptr inbounds nuw i8, ptr %0, i64 72
  store i64 %4, ptr %.sroa.2.0..sroa_idx, align 8
  %10 = getelementptr inbounds nuw i8, ptr %0, i64 80
  store i32 0, ptr %10, align 8
  ret void
}